target datalayout = "e-m:e-p270:32:32-p271:32:32-p272:64:64-i64:64-i128:128-f80:128-n8:16:32:64-S128"
target triple = "x86_64-pc-linux-gnu"

%"class.std::__cxx11::basic_string" = type { %"struct.std::__cxx11::basic_string<char>::_Alloc_hider", i64, %union.anon }
%"struct.std::__cxx11::basic_string<char>::_Alloc_hider" = type { ptr }
%union.anon = type { i64, [8 x i8] }
%struct.ThreadData = type { [4 x i32], i32, i8, [4 x [4 x i16]], i32, %struct.pos, i8, [50 x [4 x i16]], [13 x %struct.WinnersType], [14 x %struct.moveType], [50 x %struct.moveType], [50 x %struct.moveType], double, i32, i32, [8192 x %struct.relRanksType], ptr, %class.Moves }
%struct.pos = type { [4 x [4 x i16]], [4 x i16], [4 x [4 x i8]], [4 x i32], [50 x [4 x i16]], [50 x i32], [50 x %struct.moveType], i32, i32, [4 x %struct.highCardType], [4 x %struct.highCardType] }
%struct.highCardType = type { i32, i32 }
%struct.WinnersType = type { i32, [4 x %struct.WinnerEntryType] }
%struct.WinnerEntryType = type { i32, i32, i32, i32, i32 }
%struct.moveType = type { i32, i32, i32, i32 }
%struct.relRanksType = type { [15 x [4 x %struct.absRankType]] }
%struct.absRankType = type { i8, i8 }
%class.Moves = type { i32, i32, i32, i32, i32, i32, i32, i32, i32, [13 x %"struct.Moves::trackType"], ptr, [13 x [4 x %struct.movePlyType]], ptr, [13 x [4 x i32]], [13 x %"class.std::__cxx11::basic_string"], [13 x [4 x %"struct.Moves::moveStatType"]], [13 x [4 x %"struct.Moves::moveStatType"]], [13 x [4 x %"struct.Moves::moveStatsType"]], [13 x [4 x %"struct.Moves::moveStatsType"]], %"struct.Moves::moveStatsType", %"struct.Moves::moveStatsType", [16 x { i64, i64 }] }
%"struct.Moves::trackType" = type { i32, i32, [4 x i32], [4 x i32], %struct.trickDataType, [4 x %struct.extCard], [4 x i32], [4 x [4 x i32]], [4 x i32] }
%struct.trickDataType = type { [4 x i32], i32, i32, i32, i32, i32 }
%struct.extCard = type { i32, i32, i32 }
%struct.movePlyType = type { [14 x %struct.moveType], i32, i32 }
%"struct.Moves::moveStatType" = type { i32, i32, i32, i32 }
%"struct.Moves::moveStatsType" = type { i32, [13 x %"struct.Moves::moveStatType"] }

@counttable = global [8192 x i32] zeroinitializer, align 16

; Function Attrs: mustprogress nounwind uwtable
define void @_Z7SetDealP10ThreadData(ptr noundef %0) #5 {
  %2 = alloca ptr, align 8
  %3 = alloca i32, align 4
  %4 = alloca i32, align 4
  %5 = alloca i32, align 4
  %6 = alloca i32, align 4
  %7 = alloca i32, align 4
  store ptr %0, ptr %2, align 8
  store i32 0, ptr %3, align 4
  br label %8

8:                                                ; preds = %64, %1
  %9 = load i32, ptr %3, align 4
  %10 = icmp slt i32 %9, 4
  br i1 %10, label %11, label %67

11:                                               ; preds = %8
  %12 = load ptr, ptr %2, align 8
  %13 = getelementptr inbounds nuw %struct.ThreadData, ptr %12, i32 0, i32 5
  %14 = getelementptr inbounds nuw %struct.pos, ptr %13, i32 0, i32 1
  %15 = load i32, ptr %3, align 4
  %16 = sext i32 %15 to i64
  %17 = getelementptr inbounds [4 x i16], ptr %14, i64 0, i64 %16
  store i16 0, ptr %17, align 2
  store i32 0, ptr %4, align 4
  br label %18

18:                                               ; preds = %60, %11
  %19 = load i32, ptr %4, align 4
  %20 = icmp slt i32 %19, 4
  br i1 %20, label %21, label %63

21:                                               ; preds = %18
  %22 = load ptr, ptr %2, align 8
  %23 = getelementptr inbounds nuw %struct.ThreadData, ptr %22, i32 0, i32 3
  %24 = load i32, ptr %4, align 4
  %25 = sext i32 %24 to i64
  %26 = getelementptr inbounds [4 x [4 x i16]], ptr %23, i64 0, i64 %25
  %27 = load i32, ptr %3, align 4
  %28 = sext i32 %27 to i64
  %29 = getelementptr inbounds [4 x i16], ptr %26, i64 0, i64 %28
  %30 = load i16, ptr %29, align 2
  %31 = load ptr, ptr %2, align 8
  %32 = getelementptr inbounds nuw %struct.ThreadData, ptr %31, i32 0, i32 5
  %33 = getelementptr inbounds nuw %struct.pos, ptr %32, i32 0, i32 0
  %34 = load i32, ptr %4, align 4
  %35 = sext i32 %34 to i64
  %36 = getelementptr inbounds [4 x [4 x i16]], ptr %33, i64 0, i64 %35
  %37 = load i32, ptr %3, align 4
  %38 = sext i32 %37 to i64
  %39 = getelementptr inbounds [4 x i16], ptr %36, i64 0, i64 %38
  store i16 %30, ptr %39, align 2
  %40 = load ptr, ptr %2, align 8
  %41 = getelementptr inbounds nuw %struct.ThreadData, ptr %40, i32 0, i32 3
  %42 = load i32, ptr %4, align 4
  %43 = sext i32 %42 to i64
  %44 = getelementptr inbounds [4 x [4 x i16]], ptr %41, i64 0, i64 %43
  %45 = load i32, ptr %3, align 4
  %46 = sext i32 %45 to i64
  %47 = getelementptr inbounds [4 x i16], ptr %44, i64 0, i64 %46
  %48 = load i16, ptr %47, align 2
  %49 = zext i16 %48 to i32
  %50 = load ptr, ptr %2, align 8
  %51 = getelementptr inbounds nuw %struct.ThreadData, ptr %50, i32 0, i32 5
  %52 = getelementptr inbounds nuw %struct.pos, ptr %51, i32 0, i32 1
  %53 = load i32, ptr %3, align 4
  %54 = sext i32 %53 to i64
  %55 = getelementptr inbounds [4 x i16], ptr %52, i64 0, i64 %54
  %56 = load i16, ptr %55, align 2
  %57 = zext i16 %56 to i32
  %58 = or i32 %57, %49
  %59 = trunc i32 %58 to i16
  store i16 %59, ptr %55, align 2
  br label %60

60:                                               ; preds = %21
  %61 = load i32, ptr %4, align 4
  %62 = add nsw i32 %61, 1
  store i32 %62, ptr %4, align 4
  br label %18, !llvm.loop !18

63:                                               ; preds = %18
  br label %64

64:                                               ; preds = %63
  %65 = load i32, ptr %3, align 4
  %66 = add nsw i32 %65, 1
  store i32 %66, ptr %3, align 4
  br label %8, !llvm.loop !19

67:                                               ; preds = %8
  store i32 0, ptr %5, align 4
  br label %68

68:                                               ; preds = %103, %67
  %69 = load i32, ptr %5, align 4
  %70 = icmp slt i32 %69, 4
  br i1 %70, label %71, label %106

71:                                               ; preds = %68
  store i32 0, ptr %6, align 4
  br label %72

72:                                               ; preds = %99, %71
  %73 = load i32, ptr %6, align 4
  %74 = icmp slt i32 %73, 4
  br i1 %74, label %75, label %102

75:                                               ; preds = %72
  %76 = load ptr, ptr %2, align 8
  %77 = getelementptr inbounds nuw %struct.ThreadData, ptr %76, i32 0, i32 5
  %78 = getelementptr inbounds nuw %struct.pos, ptr %77, i32 0, i32 0
  %79 = load i32, ptr %6, align 4
  %80 = sext i32 %79 to i64
  %81 = getelementptr inbounds [4 x [4 x i16]], ptr %78, i64 0, i64 %80
  %82 = load i32, ptr %5, align 4
  %83 = sext i32 %82 to i64
  %84 = getelementptr inbounds [4 x i16], ptr %81, i64 0, i64 %83
  %85 = load i16, ptr %84, align 2
  %86 = zext i16 %85 to i64
  %87 = getelementptr inbounds [8192 x i32], ptr @counttable, i64 0, i64 %86
  %88 = load i32, ptr %87, align 4
  %89 = trunc i32 %88 to i8
  %90 = load ptr, ptr %2, align 8
  %91 = getelementptr inbounds nuw %struct.ThreadData, ptr %90, i32 0, i32 5
  %92 = getelementptr inbounds nuw %struct.pos, ptr %91, i32 0, i32 2
  %93 = load i32, ptr %6, align 4
  %94 = sext i32 %93 to i64
  %95 = getelementptr inbounds [4 x [4 x i8]], ptr %92, i64 0, i64 %94
  %96 = load i32, ptr %5, align 4
  %97 = sext i32 %96 to i64
  %98 = getelementptr inbounds [4 x i8], ptr %95, i64 0, i64 %97
  store i8 %89, ptr %98, align 1
  br label %99

99:                                               ; preds = %75
  %100 = load i32, ptr %6, align 4
  %101 = add nsw i32 %100, 1
  store i32 %101, ptr %6, align 4
  br label %72, !llvm.loop !20

102:                                              ; preds = %72
  br label %103

103:                                              ; preds = %102
  %104 = load i32, ptr %5, align 4
  %105 = add nsw i32 %104, 1
  store i32 %105, ptr %5, align 4
  br label %68, !llvm.loop !21

106:                                              ; preds = %68
  store i32 0, ptr %7, align 4
  br label %107

107:                                              ; preds = %150, %106
  %108 = load i32, ptr %7, align 4
  %109 = icmp slt i32 %108, 4
  br i1 %109, label %110, label %153

110:                                              ; preds = %107
  %111 = load ptr, ptr %2, align 8
  %112 = getelementptr inbounds nuw %struct.ThreadData, ptr %111, i32 0, i32 5
  %113 = getelementptr inbounds nuw %struct.pos, ptr %112, i32 0, i32 2
  %114 = load i32, ptr %7, align 4
  %115 = sext i32 %114 to i64
  %116 = getelementptr inbounds [4 x [4 x i8]], ptr %113, i64 0, i64 %115
  %117 = getelementptr inbounds [4 x i8], ptr %116, i64 0, i64 0
  %118 = load i8, ptr %117, align 4
  %119 = zext i8 %118 to i32
  %120 = shl i32 %119, 8
  %121 = load ptr, ptr %2, align 8
  %122 = getelementptr inbounds nuw %struct.ThreadData, ptr %121, i32 0, i32 5
  %123 = getelementptr inbounds nuw %struct.pos, ptr %122, i32 0, i32 2
  %124 = load i32, ptr %7, align 4
  %125 = sext i32 %124 to i64
  %126 = getelementptr inbounds [4 x [4 x i8]], ptr %123, i64 0, i64 %125
  %127 = getelementptr inbounds [4 x i8], ptr %126, i64 0, i64 1
  %128 = load i8, ptr %127, align 1
  %129 = zext i8 %128 to i32
  %130 = shl i32 %129, 4
  %131 = or i32 %120, %130
  %132 = load ptr, ptr %2, align 8
  %133 = getelementptr inbounds nuw %struct.ThreadData, ptr %132, i32 0, i32 5
  %134 = getelementptr inbounds nuw %struct.pos, ptr %133, i32 0, i32 2
  %135 = load i32, ptr %7, align 4
  %136 = sext i32 %135 to i64
  %137 = getelementptr inbounds [4 x [4 x i8]], ptr %134, i64 0, i64 %136
  %138 = getelementptr inbounds [4 x i8], ptr %137, i64 0, i64 2
  %139 = load i8, ptr %138, align 2
  %140 = zext i8 %139 to i32
  %141 = or i32 %131, %140
  %142 = sext i32 %141 to i64
  %143 = trunc i64 %142 to i32
  %144 = load ptr, ptr %2, align 8
  %145 = getelementptr inbounds nuw %struct.ThreadData, ptr %144, i32 0, i32 5
  %146 = getelementptr inbounds nuw %struct.pos, ptr %145, i32 0, i32 3
  %147 = load i32, ptr %7, align 4
  %148 = sext i32 %147 to i64
  %149 = getelementptr inbounds [4 x i32], ptr %146, i64 0, i64 %148
  store i32 %143, ptr %149, align 4
  br label %150

150:                                              ; preds = %110
  %151 = load i32, ptr %7, align 4
  %152 = add nsw i32 %151, 1
  store i32 %152, ptr %7, align 4
  br label %107, !llvm.loop !22

153:                                              ; preds = %107
  ret void
}