; Function Attrs: mustprogress nofree norecurse nosync nounwind memory(read, argmem: readwrite, inaccessiblemem: none) uwtable
define void @_Z7SetDealP10ThreadData(ptr noundef captures(none) %0) local_unnamed_addr #9 {
  %2 = getelementptr inbounds nuw i8, ptr %0, i64 60
  %3 = getelementptr inbounds nuw i8, ptr %0, i64 92
  %4 = getelementptr inbounds nuw i8, ptr %0, i64 22
  br label %6

.preheader41:                                     ; preds = %14
  %5 = getelementptr inbounds nuw i8, ptr %0, i64 100
  br label %.preheader40

6:                                                ; preds = %1, %14
  %indvars.iv48 = phi i64 [ 0, %1 ], [ %indvars.iv.next49, %14 ]
  %7 = getelementptr inbounds nuw [4 x i16], ptr %3, i64 0, i64 %indvars.iv48
  store i16 0, ptr %7, align 2
  br label %8

8:                                                ; preds = %6, %8
  %indvars.iv = phi i64 [ 0, %6 ], [ %indvars.iv.next, %8 ]
  %9 = getelementptr inbounds nuw [4 x [4 x i16]], ptr %4, i64 0, i64 %indvars.iv, i64 %indvars.iv48
  %10 = load i16, ptr %9, align 2
  %11 = getelementptr inbounds nuw [4 x [4 x i16]], ptr %2, i64 0, i64 %indvars.iv, i64 %indvars.iv48
  store i16 %10, ptr %11, align 2
  %12 = load i16, ptr %7, align 2
  %13 = or i16 %12, %10
  store i16 %13, ptr %7, align 2
  %indvars.iv.next = add nuw nsw i64 %indvars.iv, 1
  %exitcond.not = icmp eq i64 %indvars.iv.next, 4
  br i1 %exitcond.not, label %14, label %8, !llvm.loop !20

14:                                               ; preds = %8
  %indvars.iv.next49 = add nuw nsw i64 %indvars.iv48, 1
  %exitcond51.not = icmp eq i64 %indvars.iv.next49, 4
  br i1 %exitcond51.not, label %.preheader41, label %6, !llvm.loop !21

.preheader40:                                     ; preds = %.preheader41, %24
  %indvars.iv56 = phi i64 [ 0, %.preheader41 ], [ %indvars.iv.next57, %24 ]
  br label %16

.preheader:                                       ; preds = %24
  %15 = getelementptr inbounds nuw i8, ptr %0, i64 116
  br label %25

16:                                               ; preds = %.preheader40, %16
  %indvars.iv52 = phi i64 [ 0, %.preheader40 ], [ %indvars.iv.next53, %16 ]
  %17 = getelementptr inbounds nuw [4 x [4 x i16]], ptr %2, i64 0, i64 %indvars.iv52, i64 %indvars.iv56
  %18 = load i16, ptr %17, align 2
  %19 = zext i16 %18 to i64
  %20 = getelementptr inbounds nuw [8192 x i32], ptr @counttable, i64 0, i64 %19
  %21 = load i32, ptr %20, align 4
  %22 = trunc i32 %21 to i8
  %23 = getelementptr inbounds nuw [4 x [4 x i8]], ptr %5, i64 0, i64 %indvars.iv52, i64 %indvars.iv56
  store i8 %22, ptr %23, align 1
  %indvars.iv.next53 = add nuw nsw i64 %indvars.iv52, 1
  %exitcond55.not = icmp eq i64 %indvars.iv.next53, 4
  br i1 %exitcond55.not, label %24, label %16, !llvm.loop !22

24:                                               ; preds = %16
  %indvars.iv.next57 = add nuw nsw i64 %indvars.iv56, 1
  %exitcond59.not = icmp eq i64 %indvars.iv.next57, 4
  br i1 %exitcond59.not, label %.preheader, label %.preheader40, !llvm.loop !23

25:                                               ; preds = %.preheader, %25
  %indvars.iv60 = phi i64 [ 0, %.preheader ], [ %indvars.iv.next61, %25 ]
  %26 = getelementptr inbounds nuw [4 x [4 x i8]], ptr %5, i64 0, i64 %indvars.iv60
  %27 = load i8, ptr %26, align 4
  %28 = zext i8 %27 to i32
  %29 = shl nuw nsw i32 %28, 8
  %30 = getelementptr inbounds nuw i8, ptr %26, i64 1
  %31 = load i8, ptr %30, align 1
  %32 = zext i8 %31 to i32
  %33 = shl nuw nsw i32 %32, 4
  %34 = or i32 %33, %29
  %35 = getelementptr inbounds nuw i8, ptr %26, i64 2
  %36 = load i8, ptr %35, align 2
  %37 = zext i8 %36 to i32
  %38 = or i32 %34, %37
  %39 = getelementptr inbounds nuw [4 x i32], ptr %15, i64 0, i64 %indvars.iv60
  store i32 %38, ptr %39, align 4
  %indvars.iv.next61 = add nuw nsw i64 %indvars.iv60, 1
  %exitcond63.not = icmp eq i64 %indvars.iv.next61, 4
  br i1 %exitcond63.not, label %40, label %25, !llvm.loop !24

40:                                               ; preds = %25
  ret void
}